(dp1
S'limited'
p2
I1481
sS'child'
p3
I181
sS'four'
p4
I586
sS'sleep'
p5
I1714
sS'hate'
p6
I1141
sS'forget'
p7
I607
sS'whose'
p8
I902
sS'violate'
p9
I1945
sS'bike'
p10
I370
sS'swap'
p11
I1616
sS'lord'
p12
I889
sS'sorry'
p13
I480
sS'worth'
p14
I625
sS'risk'
p15
I911
sS'rise'
p16
I1474
sS'every'
p17
I119
sS'jack'
p18
I1180
sS'affect'
p19
I1291
sS'school'
p20
I475
sS'solution'
p21
I672
sS'reliable'
p22
I1881
sS'enjoy'
p23
I1346
sS'force'
p24
I269
sS'miller'
p25
I1896
sS'consistent'
p26
I1904
sS'direct'
p27
I835
sS'second'
p28
I163
sS'street'
p29
I741
sS'even'
p30
I24
sS'hide'
p31
I1464
sS'christ'
p32
I467
sS'nec'
p33
I1525
sS'liberty'
p34
I1662
sS'usenet'
p35
I993
sS'conduct'
p36
I1534
sS'new'
p37
I19
sS'net'
p38
I435
sS'ever'
p39
I217
sS'widget'
p40
I517
sS'never'
p41
I79
sS'protection'
p42
I1078
sS'active'
p43
I1752
sS'path'
p44
I1402
sS'interpret'
p45
I1536
sS'voice'
p46
I606
sS'daughter'
p47
I1890
sS'study'
p48
I301
sS'credit'
p49
I1584
sS'permit'
p50
I1422
sS'military'
p51
I580
sS'punishment'
p52
I1625
sS'secure'
p53
I780
sS'replace'
p54
I643
sS'visible'
p55
I1792
sS'unix'
p56
I753
sS'moral'
p57
I563
sS'printf'
p58
I1673
sS'total'
p59
I592
sS'unit'
p60
I588
sS'plot'
p61
I1900
sS'army'
p62
I1036
sS'hospital'
p63
I1435
sS'tm'
p64
I1978
sS'call'
p65
I42
sS'therefore'
p66
I540
sS'recommend'
p67
I980
sS'strike'
p68
I1460
sS'survive'
p69
I1869
sS'type'
p70
I229
sS'tell'
p71
I47
sS'posting'
p72
I1263
sS'holy'
p73
I1095
sS'expose'
p74
I1755
sS'award'
p75
I1924
sS'aware'
p76
I1248
sS'warn'
p77
I1872
sS'phone'
p78
I192
sS'excellent'
p79
I882
sS'hole'
p80
I917
sS'hold'
p81
I245
sS'must'
p82
I75
sS'shoot'
p83
I880
sS'md'
p84
I1916
sS'mg'
p85
I1986
sS'ma'
p86
I1010
sS'room'
p87
I821
sS'mb'
p88
I866
sS'setup'
p89
I1540
sS'work'
p90
I16
sS'mi'
p91
I1982
sS'spec'
p92
I1397
sS'mw'
p93
I1989
sS'install'
p94
I468
sS'mr'
p95
I1603
sS'root'
p96
I1539
sS'example'
p97
I150
sS'give'
p98
I28
sS'involve'
p99
I400
sS'want'
p100
I21
sS'keep'
p101
I90
sS'absolute'
p102
I960
sS'end'
p103
I133
sS'thing'
p104
I23
sS'provide'
p105
I140
sS'ie'
p106
I1228
sS'travel'
p107
I1871
sS'feature'
p108
I637
sS'machine'
p109
I202
sS'hot'
p110
I1083
sS'answer'
p111
I165
sS'description'
p112
I1124
sS'earlier'
p113
I1076
sS'lab'
p114
I1249
sS'wrong'
p115
I184
sS'lay'
p116
I1361
sS'president'
p117
I255
sS'law'
p118
I70
sS'parallel'
p119
I1666
sS'purchase'
p120
I744
sS'attempt'
p121
I484
sS'third'
p122
I553
sS'appreciate'
p123
I348
sS'greek'
p124
I803
sS'maintain'
p125
I908
sS'green'
p126
I1331
sS'enter'
p127
I969
sS'worst'
p128
I1677
sS'operate'
p129
I1261
sS'order'
p130
I144
sS'oname'
p131
I1879
sS'restriction'
p132
I1789
sS'interpretation'
p133
I1167
sS'office'
p134
I520
sS'xlib'
p135
I1781
sS'vary'
p136
I1733
sS'jpeg'
p137
I1088
sS'keyboard'
p138
I819
sS'que'
p139
I1906
sS'fit'
p140
I760
sS'personal'
p141
I593
sS'fix'
p142
I682
sS'better'
p143
I78
sS'easier'
p144
I1282
sS'eventually'
p145
I1434
sS'powerful'
p146
I1769
sS'safe'
p147
I1092
sS'break'
p148
I383
sS'band'
p149
I1709
sS'echo'
p150
I1772
sS'bank'
p151
I785
sS'detroit'
p152
I1297
sS'reasonable'
p153
I833
sS'flyers'
p154
I1842
sS'side'
p155
I249
sS'mean'
p156
I58
sS'prohibit'
p157
I1739
sS'fairly'
p158
I1051
sS'series'
p159
I669
sS'carry'
p160
I311
sS'doug'
p161
I1101
sS'laboratory'
p162
I1766
sS'ring'
p163
I1867
sS'network'
p164
I466
sS'god'
p165
I34
sS'content'
p166
I1811
sS're'
p167
I1581
sS'encourage'
p168
I1679
sS'daniel'
p169
I1856
sS'reader'
p170
I1215
sS'medicine'
p171
I1299
sS'surprise'
p172
I1129
sS'size'
p173
I399
sS'foundation'
p174
I1571
sS'associate'
p175
I1110
sS'eternal'
p176
I1236
sS'free'
p177
I200
sS'standard'
p178
I193
sS'estimate'
p179
I1831
sS'kit'
p180
I1894
sS'filter'
p181
I1858
sS'oppose'
p182
I1197
sS'signature'
p183
I1807
sS'isa'
p184
I1378
sS'onto'
p185
I1590
sS'user'
p186
I246
sS'already'
p187
I250
sS'backup'
p188
I1650
sS'render'
p189
I1822
sS'nhl'
p190
I857
sS'puck'
p191
I1805
sS'primary'
p192
I1864
sS'another'
p193
I84
sS'electronic'
p194
I961
sS'service'
p195
I324
sS'tor'
p196
I1972
sS'top'
p197
I462
sS'master'
p198
I989
sS'tom'
p199
I850
sS'john'
p200
I174
sS'listen'
p201
I883
sS'murder'
p202
I650
sS'tool'
p203
I626
sS'serve'
p204
I679
sS'japanese'
p205
I1556
sS'western'
p206
I965
sS'somewhat'
p207
I1425
sS'stephanopoulos'
p208
I797
sS'symptom'
p209
I1965
sS'toronto'
p210
I820
sS'distance'
p211
I1747
sS'target'
p212
I1294
sS'older'
p213
I1512
sS'likely'
p214
I431
sS'cite'
p215
I1746
sS'project'
p216
I507
sS'matter'
p217
I263
sS'flame'
p218
I748
sS'historical'
p219
I1680
sS'feeling'
p220
I1428
sS'boston'
p221
I1019
sS'ram'
p222
I656
sS'mind'
p223
I310
sS'mine'
p224
I489
sS'manner'
p225
I1861
sS'leafs'
p226
I1411
sS'seem'
p227
I51
sS'seek'
p228
I1187
sS'alive'
p229
I1369
sS'ray'
p230
I1438
sS'responsible'
p231
I1017
sS'vga'
p232
I1174
sS'pittsburgh'
p233
I909
sS'contact'
p234
I330
sS'rider'
p235
I1480
sS'blue'
p236
I1075
sS'nobody'
p237
I1072
sS'philadelphia'
p238
I1458
sS'though'
p239
I157
sS'bruce'
p240
I1744
sS'object'
p241
I601
sS'regular'
p242
I1016
sS'germany'
p243
I914
sS'ensure'
p244
I1688
sS'letter'
p245
I685
sS'entry'
p246
I405
sS'morality'
p247
I991
sS'observation'
p248
I1484
sS'medical'
p249
I723
sS'dog'
p250
I978
sS'dod'
p251
I483
sS'definitely'
p252
I1427
sS'principle'
p253
I1316
sS'dos'
p254
I414
sS'mailing'
p255
I1193
sS'reserve'
p256
I1758
sS'bomb'
p257
I1824
sS'pope'
p258
I1750
sS'lewis'
p259
I1952
sS'random'
p260
I1395
sS'radio'
p261
I568
sS'participate'
p262
I1802
sS'earth'
p263
I448
sS'finally'
p264
I811
sS'implementation'
p265
I1555
sS'menu'
p266
I1599
sS'explain'
p267
I386
sS'minnesota'
p268
I1767
sS'bush'
p269
I1630
sS'rich'
p270
I1615
sS'announce'
p271
I1104
sS'scripture'
p272
I1128
sS'cryptography'
p273
I1554
sS'de'
p274
I903
sS'db'
p275
I393
sS'dc'
p276
I1334
sS'despite'
p277
I1489
sS'report'
p278
I214
sS'saturn'
p279
I1937
sS'hall'
p280
I1382
sS'bar'
p281
I1477
sS'method'
p282
I581
sS'twice'
p283
I1607
sS'bad'
p284
I194
sS'release'
p285
I422
sS'steal'
p286
I1109
sS'secretary'
p287
I1530
sS'respond'
p288
I735
sS'victim'
p289
I1510
sS'fair'
p290
I1227
sS'motherboard'
p291
I1195
sS'meg'
p292
I1098
sS'result'
p293
I227
sS'fail'
p294
I501
sS'best'
p295
I131
sS'subject'
p296
I185
sS'away'
p297
I225
sS'score'
p298
I541
sS'finger'
p299
I1507
sS'approach'
p300
I644
sS'accord'
p301
I554
sS'extend'
p302
I1929
sS'nature'
p303
I771
sS'modify'
p304
I1524
sS'wm'
p305
I1993
sS'weak'
p306
I1708
sS'however'
p307
I112
sS'wear'
p308
I1290
sS'news'
p309
I336
sS'improve'
p310
I1118
sS'cop'
p311
I1139
sS'protect'
p312
I460
sS'accident'
p313
I1386
sS'country'
p314
I243
sS'adapter'
p315
I1720
sS'cup'
p316
I1001
sS'logic'
p317
I1094
sS'argue'
p318
I762
sS'cult'
p319
I1812
sS'tony'
p320
I1601
sS'trust'
p321
I814
sS'hitler'
p322
I1738
sS'speak'
p323
I332
sS'conference'
p324
I913
sS'basis'
p325
I678
sS'three'
p326
I218
sS'quickly'
p327
I1339
sS'much'
p328
I38
sS'west'
p329
I940
sS'interest'
p330
I525
sS'basic'
p331
I782
sS'life'
p332
I122
sS'easy'
p333
I536
sS'wish'
p334
I624
sS'dave'
p335
I657
sS'personally'
p336
I1089
sS'catch'
p337
I1012
sS'exception'
p338
I1940
sS'east'
p339
I966
sS'tank'
p340
I1035
sS'air'
p341
I764
sS'near'
p342
I676
sS'suppose'
p343
I432
sS'aid'
p344
I1226
sS'property'
p345
I1015
sS'procedure'
p346
I1668
sS'mistake'
p347
I1103
sS'toolkit'
p348
I1702
sS'ii'
p349
I777
sS'player'
p350
I212
sS'brake'
p351
I1354
sS'io'
p352
I1975
sS'vendor'
p353
I1791
sS'seattle'
p354
I1567
sS'mouse'
p355
I641
sS'id'
p356
I1349
sS'prior'
p357
I1727
sS'perform'
p358
I919
sS'suggest'
p359
I376
sS'make'
p360
I9
sS'complex'
p361
I1594
sS'several'
p362
I208
sS'european'
p363
I1330
sS'wheel'
p364
I1602
sS'independent'
p365
I1152
sS'satellite'
p366
I796
sS'catholic'
p367
I1400
sS'social'
p368
I1120
sS'hang'
p369
I1365
sS'evil'
p370
I899
sS'hand'
p371
I205
sS'opportunity'
p372
I1502
sS'kid'
p373
I767
sS'client'
p374
I923
sS'mother'
p375
I949
sS'left'
p376
I972
sS'protocol'
p377
I1718
sS'sentence'
p378
I1604
sS'distribute'
p379
I1357
sS'identify'
p380
I1479
sS'thanks'
p381
I73
sS'human'
p382
I186
sS'yes'
p383
I188
sS'yet'
p384
I224
sS'previous'
p385
I647
sS'jose'
p386
I1436
sS'mix'
p387
I1897
sS'character'
p388
I859
sS'spread'
p389
I1868
sS'board'
p390
I398
sS'innocent'
p391
I1119
sS'save'
p392
I335
sS'possible'
p393
I156
sS'arab'
p394
I834
sS'possibly'
p395
I973
sS'background'
p396
I1269
sS'destroy'
p397
I1050
sS'judge'
p398
I646
sS'highly'
p399
I1151
sS'desire'
p400
I1271
sS'manual'
p401
I696
sS'mit'
p402
I1482
sS'specific'
p403
I677
sS'remind'
p404
I1959
sS'officer'
p405
I1065
sS'night'
p406
I522
sS'security'
p407
I444
sS'right'
p408
I41
sS'old'
p409
I180
sS'deal'
p410
I313
sS'people'
p411
I8
sS'somehow'
p412
I1440
sS'dead'
p413
I529
sS'printer'
p414
I768
sS'escape'
p415
I1080
sS'pain'
p416
I996
sS'bottom'
p417
I1533
sS'ice'
p418
I1348
sS'everything'
p419
I327
sS'colormap'
p420
I1855
sS'burn'
p421
I943
sS'defensive'
p422
I1813
sS'post'
p423
I48
sS'plug'
p424
I1245
sS'acquire'
p425
I1743
sS'palestinian'
p426
I1706
sS'magazine'
p427
I887
sS'plus'
p428
I707
sS'commit'
p429
I878
sS'slightly'
p430
I1486
sS'batf'
p431
I1399
sS'facility'
p432
I1337
sS'civil'
p433
I1026
sS'son'
p434
I718
sS'stop'
p435
I277
sS'doctrine'
p436
I1577
sS'rely'
p437
I1778
sS'compression'
p438
I1783
sS'support'
p439
I83
sS'initial'
p440
I1893
sS'fight'
p441
I765
sS'gif'
p442
I1082
sS'joseph'
p443
I1391
sS'editor'
p444
I1420
sS'way'
p445
I25
sS'music'
p446
I1775
sS'war'
p447
I265
sS'happy'
p448
I907
sS'head'
p449
I322
sS'form'
p450
I360
sS'offer'
p451
I270
sS'ford'
p452
I1951
sS'failure'
p453
I1585
sS'heat'
p454
I1634
sS'hear'
p455
I102
sS'solar'
p456
I1699
sS'surrender'
p457
I1882
sS'true'
p458
I123
sS'braves'
p459
I1753
sS'inside'
p460
I754
sS'delete'
p461
I618
sS'phil'
p462
I1636
sS'liberal'
p463
I1834
sS'computing'
p464
I1686
sS'drive'
p465
I50
sS'postscript'
p466
I1407
sS'exist'
p467
I167
sS'prayer'
p468
I1918
sS'ship'
p469
I1090
sS'archive'
p470
I895
sS'physical'
p471
I1033
sS'nj'
p472
I1589
sS'encrypt'
p473
I1620
sS'floor'
p474
I1653
sS'na'
p475
I1326
sS'generally'
p476
I849
sS'reality'
p477
I998
sS'ny'
p478
I1047
sS'interested'
p479
I307
sS'role'
p480
I1284
sS'digital'
p481
I839
sS'test'
p482
I306
sS'tie'
p483
I1225
sS'nt'
p484
I1196
sS'roll'
p485
I1960
sS'picture'
p486
I692
sS'intend'
p487
I874
sS'welcome'
p488
I1345
sS'update'
p489
I1165
sS'muslims'
p490
I1350
sS'variable'
p491
I1883
sS'hurt'
p492
I1240
sS'careful'
p493
I1876
sS'billion'
p494
I1157
sS'faster'
p495
I848
sS'assume'
p496
I254
sS'together'
p497
I628
sS'time'
p498
I14
sS'push'
p499
I997
sS'serious'
p500
I717
sS'basically'
p501
I995
sS'concept'
p502
I1086
sS'rom'
p503
I1396
sS'ron'
p504
I1162
sS'rob'
p505
I1275
sS'datum'
p506
I129
sS'focus'
p507
I1816
sS'manager'
p508
I577
sS'mile'
p509
I831
sS'battle'
p510
I1854
sS'certainly'
p511
I378
sS'depend'
p512
I701
sS'zone'
p513
I1476
sS'technique'
p514
I1208
sS'father'
p515
I651
sS'passage'
p516
I1494
sS'environment'
p517
I927
sS'charge'
p518
I716
sS'division'
p519
I565
sS'string'
p520
I1207
sS'advantage'
p521
I1121
sS'choice'
p522
I673
sS'anonymous'
p523
I582
sS'join'
p524
I1324
sS'trouble'
p525
I931
sS'exact'
p526
I1375
sS'minute'
p527
I684
sS'cool'
p528
I1652
sS'level'
p529
I359
sS'tear'
p530
I1368
sS'die'
p531
I312
sS'rights'
p532
I295
sS'gun'
p533
I134
sS'leave'
p534
I142
sS'item'
p535
I896
sS'team'
p536
I106
sS'quick'
p537
I1218
sS'guy'
p538
I303
sS'round'
p539
I910
sS'prevent'
p540
I659
sS'discover'
p541
I1356
sS'sign'
p542
I671
sS'cost'
p543
I221
sS'run'
p544
I43
sS'port'
p545
I556
sS'appear'
p546
I314
sS'current'
p547
I248
sS'suspect'
p548
I900
sS'reply'
p549
I426
sS'muslim'
p550
I1002
sS'french'
p551
I1905
sS'understanding'
p552
I1295
sS'water'
p553
I610
sS'slow'
p554
I951
sS'baseball'
p555
I730
sS'address'
p556
I189
sS'alone'
p557
I915
sS'along'
p558
I623
sS'change'
p559
I110
sS'wait'
p560
I478
sS'box'
p561
I281
sS'boy'
p562
I1371
sS'dec'
p563
I1771
sS'canadian'
p564
I1659
sS'institute'
p565
I807
sS'shift'
p566
I1647
sS'teaching'
p567
I1541
sS'guilty'
p568
I1832
sS'trial'
p569
I901
sS'suggestion'
p570
I818
sS'usually'
p571
I452
sS'bob'
p572
I655
sS'myers'
p573
I1801
sS'montreal'
p574
I1394
sS'macintosh'
p575
I1827
sS'winner'
p576
I1542
sS'love'
p577
I293
sS'extra'
p578
I941
sS'merely'
p579
I1288
sS'prefer'
p580
I979
sS'logical'
p581
I1774
sS'rg'
p582
I1985
sS'fbi'
p583
I743
sS'employer'
p584
I1500
sS'firearm'
p585
I691
sS'market'
p586
I687
sS'everybody'
p587
I1206
sS'troops'
p588
I1487
sS'prove'
p589
I504
sS'positive'
p590
I1503
sS'visit'
p591
I1516
sS'connector'
p592
I1568
sS'live'
p593
I158
sS'andy'
p594
I1721
sS'memory'
p595
I299
sS'msg'
p596
I985
sS'satan'
p597
I1936
sS'today'
p598
I219
sS'chapter'
p599
I1762
sS'club'
p600
I1169
sS'acceptable'
p601
I1809
sS'visual'
p602
I1414
sS'prophecy'
p603
I1901
sS'effort'
p604
I695
sS'fly'
p605
I1223
sS'graphic'
p606
I567
sS'ibm'
p607
I732
sS'car'
p608
I86
sS'originally'
p609
I1899
sS'cap'
p610
I1723
sS'soul'
p611
I1145
sS'achieve'
p612
I1793
sS'cal'
p613
I1455
sS'following'
p614
I1654
sS'arrive'
p615
I1795
sS'claim'
p616
I136
sS'figure'
p617
I434
sS'predict'
p618
I1956
sS'chip'
p619
I143
sS'agent'
p620
I1057
sS'sample'
p621
I1258
sS'council'
p622
I1949
sS'offense'
p623
I1917
sS'occur'
p624
I604
sS'discussion'
p625
I394
sS'write'
p626
I1
sS'sunday'
p627
I1251
sS'vancouver'
p628
I1148
sS'familiar'
p629
I1950
sS'genocide'
p630
I1179
sS'guarantee'
p631
I1114
sS'economy'
p632
I1785
sS'map'
p633
I1287
sS'product'
p634
I419
sS'huge'
p635
I1469
sS'may'
p636
I30
sS'max'
p637
I1698
sS'spot'
p638
I1447
sS'islamic'
p639
I1360
sS'mac'
p640
I291
sS'produce'
p641
I508
sS'date'
p642
I474
sS'truly'
p643
I1550
sS'data'
p644
I1612
sS'grow'
p645
I1184
sS'man'
p646
I93
sS'natural'
p647
I947
sS'remember'
p648
I234
sS'johnson'
p649
I1860
sS'maybe'
p650
I187
sS'sp'
p651
I1981
sS'st'
p652
I1979
sS'switch'
p653
I621
sS'truck'
p654
I1670
sS'april'
p655
I331
sS'talk'
p656
I138
sS'typical'
p657
I1328
sS'indeed'
p658
I804
sS'damage'
p659
I1244
sS'course'
p660
I120
sS'pitch'
p661
I1186
sS'cold'
p662
I1418
sS'still'
p663
I62
sS'worship'
p664
I1415
sS'group'
p665
I85
sS'monitor'
p666
I413
sS'interesting'
p667
I545
sS'jim'
p668
I506
sS'platform'
p669
I1692
sS'window'
p670
I101
sS'winnipeg'
p671
I1911
sS'policy'
p672
I485
sS'mail'
p673
I228
sS'main'
p674
I719
sS'texas'
p675
I986
sS'civilian'
p676
I1007
sS'nation'
p677
I944
sS'half'
p678
I756
sS'discuss'
p679
I639
sS'term'
p680
I433
sS'name'
p681
I88
sS'james'
p682
I660
sS'times'
p683
I1658
sS'drop'
p684
I755
sS'crypto'
p685
I1364
sS'rangers'
p686
I1429
sS'rock'
p687
I1317
sS'entirely'
p688
I1190
sS'domain'
p689
I1374
sS'ed'
p690
I876
sS'yeah'
p691
I981
sS'year'
p692
I18
sS'assumption'
p693
I1370
sS'happen'
p694
I116
sS'morning'
p695
I1250
sS'minority'
p696
I1170
sS'canada'
p697
I547
sS'living'
p698
I1818
sS'space'
p699
I111
sS'increase'
p700
I497
sS'seriously'
p701
I1056
sS'investigation'
p702
I1942
sS'kent'
p703
I1705
sS'internet'
p704
I201
sS'correct'
p705
I391
sS'theory'
p706
I583
sS'million'
p707
I498
sS'possibility'
p708
I1142
sS'quite'
p709
I216
sS'california'
p710
I946
sS'besides'
p711
I1211
sS'byte'
p712
I885
sS'keith'
p713
I962
sS'card'
p714
I126
sS'care'
p715
I304
sS'advance'
p716
I423
sS'training'
p717
I1318
sS'language'
p718
I704
sS'programming'
p719
I1274
sS'british'
p720
I1319
sS'turn'
p721
I190
sS'place'
p722
I109
sS'gordon'
p723
I1377
sS'think'
p724
I12
sS'first'
p725
I39
sS'origin'
p726
I1863
sS'btw'
p727
I906
sS'one'
p728
I2
sS'insist'
p729
I1756
sS'americans'
p730
I1046
sS'specifically'
p731
I1182
sS'directly'
p732
I840
sS'vote'
p733
I749
sS'impossible'
p734
I1166
sS'message'
p735
I237
sS'open'
p736
I253
sS'george'
p737
I928
sS'xt'
p738
I1380
sS'engineer'
p739
I1204
sS'city'
p740
I339
sS'little'
p741
I108
sS'necessarily'
p742
I1060
sS'anyone'
p743
I46
sS'indicate'
p744
I948
sS'draft'
p745
I1214
sS'white'
p746
I443
sS'national'
p747
I260
sS'friend'
p748
I329
sS'mostly'
p749
I1185
sS'floppy'
p750
I873
sS'season'
p751
I382
sS'workstation'
p752
I1873
sS'alan'
p753
I1574
sS'hus'
p754
I578
sS'copy'
p755
I290
sS'specify'
p756
I1277
sS'population'
p757
I693
sS'wide'
p758
I1175
sS'unfortunately'
p759
I858
sS'require'
p760
I203
sS'future'
p761
I573
sS'russia'
p762
I1312
sS'documentation'
p763
I1490
sS'san'
p764
I609
sS'craig'
p765
I1632
sS'pro'
p766
I1559
sS'argument'
p767
I262
sS'say'
p768
I5
sS'allen'
p769
I1884
sS'nazi'
p770
I1401
sS'kevin'
p771
I1547
sS'aside'
p772
I1853
sS'note'
p773
I148
sS'equipment'
p774
I1064
sS'potential'
p775
I1311
sS'take'
p776
I17
sS'objective'
p777
I720
sS'performance'
p778
I713
sS'wonder'
p779
I362
sS'channel'
p780
I1280
sS'begin'
p781
I397
sS'sure'
p782
I82
sS'multiple'
p783
I1052
sS'normal'
p784
I790
sS'track'
p785
I1413
sS'price'
p786
I211
sS'assault'
p787
I1511
sS'pair'
p788
I1836
sS'america'
p789
I801
sS'especially'
p790
I463
sS'average'
p791
I688
sS'later'
p792
I364
sS'sale'
p793
I465
sS'wing'
p794
I1693
sS'larry'
p795
I1470
sS'pattern'
p796
I1847
sS'professional'
p797
I1614
sS'senior'
p798
I1961
sS'shop'
p799
I1837
sS'shot'
p800
I758
sS'show'
p801
I103
sS'german'
p802
I1150
sS'cheap'
p803
I1054
sS'corner'
p804
I1798
sS'azerbaijan'
p805
I1563
sS'ground'
p806
I492
sS'slot'
p807
I1301
sS'upgrade'
p808
I898
sS'title'
p809
I709
sS'daily'
p810
I1912
sS'behind'
p811
I617
sS'crime'
p812
I403
sS'black'
p813
I439
sS'hockey'
p814
I464
sS'get'
p815
I4
sS'mission'
p816
I884
sS'nearly'
p817
I1493
sS'reveal'
p818
I1424
sS'resource'
p819
I700
sS'girl'
p820
I1878
sS'summary'
p821
I1340
sS'stupid'
p822
I869
sS'roger'
p823
I1219
sS'seat'
p824
I1529
sS'relative'
p825
I1683
sS'college'
p826
I1149
sS'existence'
p827
I766
sS'stanley'
p828
I1715
sS'sport'
p829
I1164
sS'concern'
p830
I502
sS'israeli'
p831
I410
sS'detect'
p832
I1815
sS'federal'
p833
I648
sS'review'
p834
I977
sS'outside'
p835
I697
sS'reading'
p836
I1322
sS'across'
p837
I968
sS'jumper'
p838
I1557
sS'notice'
p839
I600
sS'parent'
p840
I1063
sS'quadra'
p841
I1777
sS'screen'
p842
I493
sS'blame'
p843
I1259
sS'armenian'
p844
I374
sS'article'
p845
I6
sS'come'
p846
I22
sS'recall'
p847
I999
sS'reaction'
p848
I1504
sS'installation'
p849
I1655
sS'many'
p850
I37
sS'region'
p851
I1682
sS'contract'
p852
I1520
sS'somewhere'
p853
I1003
sS'duty'
p854
I1799
sS'among'
p855
I514
sS'armenia'
p856
I816
sS'cancer'
p857
I1610
sS'color'
p858
I272
sS'effective'
p859
I1027
sS'period'
p860
I425
sS'pop'
p861
I1646
sS'turkey'
p862
I772
sS'capable'
p863
I1488
sS'encryption'
p864
I300
sS'mark'
p865
I258
sS'hardly'
p866
I1726
sS'mary'
p867
I1465
sS'engine'
p868
I598
sS'direction'
p869
I1304
sS'thousand'
p870
I822
sS'andrew'
p871
I1018
sS'observe'
p872
I1828
sS'external'
p873
I1358
sS'evidence'
p874
I259
sS'spirit'
p875
I1132
sS'case'
p876
I71
sS'mount'
p877
I1644
sS'single'
p878
I392
sS'compile'
p879
I1303
sS'newspaper'
p880
I1580
sS'situation'
p881
I407
sS'telephone'
p882
I1232
sS'middle'
p883
I1084
sS'someone'
p884
I94
sS'somebody'
p885
I881
sS'technology'
p886
I271
sS'worry'
p887
I1221
sS'helmet'
p888
I1597
sS'different'
p889
I135
sS'pat'
p890
I1177
sS'doctor'
p891
I731
sS'pay'
p892
I215
sS'wiring'
p893
I1761
sS'dealer'
p894
I844
sS'speech'
p895
I1560
sS'document'
p896
I714
sS'status'
p897
I1293
sS'oil'
p898
I1024
sS'driver'
p899
I195
sS'scientist'
p900
I1216
sS'totally'
p901
I1220
sS'tradition'
p902
I1617
sS'without'
p903
I87
sS'solve'
p904
I1353
sS'model'
p905
I353
sS'modem'
p906
I789
sS'justify'
p907
I1765
sS'summer'
p908
I1308
sS'money'
p909
I251
sS'rest'
p910
I518
sS'violent'
p911
I1921
sS'kill'
p912
I160
sS'aspect'
p913
I1451
sS'touch'
p914
I1770
sS'speed'
p915
I252
sS'blow'
p916
I987
sS'death'
p917
I343
sS'tim'
p918
I1067
sS'thinking'
p919
I1830
sS'except'
p920
I455
sS'verse'
p921
I1684
sS'setting'
p922
I1454
sS'treatment'
p923
I1071
sS'real'
p924
I168
sS'around'
p925
I117
sS'read'
p926
I65
sS'papers'
p927
I1681
sS'mov'
p928
I1819
sS'early'
p929
I584
sS'traffic'
p930
I1137
sS'mon'
p931
I1663
sS'world'
p932
I105
sS'cd'
p933
I974
sS'outlet'
p934
I1665
sS'adams'
p935
I1823
sS'patrick'
p936
I1749
sS'server'
p937
I296
sS'benefit'
p938
I1049
sS'either'
p939
I159
sS'fully'
p940
I1305
sS'output'
p941
I395
sS'jews'
p942
I319
sS'lebanon'
p943
I1657
sS'table'
p944
I1053
sS'tube'
p945
I1849
sS'legal'
p946
I663
sS'moon'
p947
I990
sS'exit'
p948
I1913
sS'lunar'
p949
I1260
sS'knife'
p950
I1895
sS'refer'
p951
I590
sS'scientific'
p952
I843
sS'business'
p953
I505
sS'seconds'
p954
I1938
sS'equivalent'
p955
I1689
sS'resurrection'
p956
I1919
sS'throw'
p957
I661
sS'manufacturer'
p958
I1194
sS'oo'
p959
I1820
sS'comparison'
p960
I1419
sS'stone'
p961
I1701
sS'ok'
p962
I555
sS'oh'
p963
I461
sS'island'
p964
I1565
sS'industry'
p965
I1028
sS'marc'
p966
I1622
sS'greatly'
p967
I1117
sS'neighbor'
p968
I1154
sS'act'
p969
I292
sS'luck'
p970
I1257
sS'os'
p971
I1160
sS'processor'
p972
I1526
sS'road'
p973
I442
sS'cambridge'
p974
I1685
sS'communication'
p975
I802
sS'image'
p976
I171
sS'determine'
p977
I702
sS'gary'
p978
I1183
sS'prepare'
p979
I1600
sS'area'
p980
I230
sS'hey'
p981
I1055
sS'christianity'
p982
I776
sS'los'
p983
I1107
sS'low'
p984
I515
sS'lot'
p985
I92
sS'complete'
p986
I633
sS'enough'
p987
I141
sS'regard'
p988
I509
sS'pitcher'
p989
I1880
sS'cycle'
p990
I1611
sS'longer'
p991
I579
sS'pull'
p992
I845
sS'default'
p993
I1254
sS'organize'
p994
I1566
sS'agree'
p995
I256
sS'connect'
p996
I750
sS'strongly'
p997
I1963
sS'ac'
p998
I1582
sS'ab'
p999
I1977
sS'ad'
p1000
I1004
sS'certain'
p1001
I415
sS'arabs'
p1002
I1517
sS'describe'
p1003
I530
sS'al'
p1004
I806
sS'deep'
p1005
I1735
sS'general'
p1006
I213
sS'examine'
p1007
I1857
sS'ottawa'
p1008
I1846
sS'file'
p1009
I35
sS'senate'
p1010
I1730
sS'ax'
p1011
I1991
sS'fill'
p1012
I1283
sS'uucp'
p1013
I1289
sS'deserve'
p1014
I1373
sS'insurance'
p1015
I784
sS'field'
p1016
I603
sS'valid'
p1017
I1198
sS'poor'
p1018
I1006
sS'trip'
p1019
I1732
sS'congress'
p1020
I824
sS'separate'
p1021
I1034
sS'important'
p1022
I334
sS'coverage'
p1023
I1631
sS'chris'
p1024
I982
sS'building'
p1025
I783
sS'remote'
p1026
I1344
sS'wife'
p1027
I877
sS'mask'
p1028
I1944
sS'mass'
p1029
I924
sS'adam'
p1030
I1852
sS'directory'
p1031
I576
sS'resolution'
p1032
I1224
sS'cpu'
p1033
I1313
sS'bmw'
p1034
I1416
sS'represent'
p1035
I1155
sS'consider'
p1036
I124
sS'lack'
p1037
I746
sS'dollar'
p1038
I1203
sS'month'
p1039
I338
sS'spacecraft'
p1040
I1707
sS'coach'
p1041
I1710
sS'douglas'
p1042
I1927
sS'follow'
p1043
I100
sS'disk'
p1044
I197
sS'religious'
p1045
I634
sS'reasoning'
p1046
I1728
sS'apartment'
p1047
I1461
sS'tv'
p1048
I740
sS'rf'
p1049
I1987
sS'former'
p1050
I1032
sS'program'
p1051
I52
sS'health'
p1052
I561
sS'sound'
p1053
I232
sS'fax'
p1054
I289
sS'woman'
p1055
I318
sS'worse'
p1056
I862
sS'far'
p1057
I154
sS'faq'
p1058
I569
sS'wiretap'
p1059
I1649
sS'fan'
p1060
I500
sS'decide'
p1061
I409
sS'fall'
p1062
I511
sS'ticket'
p1063
I1449
sS'difference'
p1064
I297
sS'condition'
p1065
I532
sS'heaven'
p1066
I1062
sS'cable'
p1067
I728
sS'louis'
p1068
I1538
sS'list'
p1069
I107
sS'large'
p1070
I288
sS'small'
p1071
I286
sS'tel'
p1072
I1398
sS'andor'
p1073
I1202
sS'ten'
p1074
I964
sS'ted'
p1075
I1573
sS'past'
p1076
I560
sS'rate'
p1077
I309
sS'design'
p1078
I267
sS'ripem'
p1079
I1729
sS'pass'
p1080
I346
sS'material'
p1081
I827
sS'richard'
p1082
I926
sS'clock'
p1083
I1070
sS'sun'
p1084
I450
sS'section'
p1085
I471
sS'version'
p1086
I152
sS'public'
p1087
I183
sS'movement'
p1088
I1421
sS'full'
p1089
I371
sS'christian'
p1090
I127
sS'component'
p1091
I1506
sS'supposedly'
p1092
I1964
sS'strong'
p1093
I559
sS'search'
p1094
I738
sS'bible'
p1095
I287
sS'ahead'
p1096
I1467
sS'_eos_'
p1097
I0
sS'experience'
p1098
I305
sS'soldier'
p1099
I956
sS'amount'
p1100
I632
sS'pick'
p1101
I499
sS'action'
p1102
I351
sS'via'
p1103
I487
sS'family'
p1104
I620
sS'ask'
p1105
I81
sS'establish'
p1106
I984
sS'select'
p1107
I970
sS'eye'
p1108
I774
sS'proceed'
p1109
I1624
sS'revelation'
p1110
I1806
sS'two'
p1111
I40
sS'injury'
p1112
I1453
sS'minor'
p1113
I1127
sS'turbo'
p1114
I1850
sS'israel'
p1115
I239
sS'door'
p1116
I830
sS'company'
p1117
I279
sS'excuse'
p1118
I1320
sS'stick'
p1119
I841
sS'particular'
p1120
I523
sS'town'
p1121
I1116
sS'none'
p1122
I779
sS'hour'
p1123
I703
sS'science'
p1124
I274
sS'des'
p1125
I988
sS'det'
p1126
I1814
sS'remain'
p1127
I699
sS'bias'
p1128
I1545
sS'learn'
p1129
I451
sS'male'
p1130
I1392
sS'history'
p1131
I388
sS'compare'
p1132
I574
sS'brown'
p1133
I1874
sS'share'
p1134
I757
sS'accept'
p1135
I333
sS'states'
p1136
I690
sS'sense'
p1137
I406
sS'libertarian'
p1138
I1933
sS'homicide'
p1139
I1817
sS'information'
p1140
I67
sS'court'
p1141
I546
sS'goal'
p1142
I446
sS'rather'
p1143
I166
sS'reject'
p1144
I1362
sS'plant'
p1145
I1645
sS'okay'
p1146
I1300
sS'threat'
p1147
I1448
sS'binary'
p1148
I1609
sS'advice'
p1149
I1048
sS'long'
p1150
I121
sS'reflect'
p1151
I1821
sS'plane'
p1152
I1262
sS'director'
p1153
I1736
sS'blood'
p1154
I888
sS'develop'
p1155
I535
sS'response'
p1156
I470
sS'refuse'
p1157
I1412
sS'short'
p1158
I558
sS'register'
p1159
I1323
sS'responsibility'
p1160
I1147
sS'media'
p1161
I788
sS'scsi'
p1162
I638
sS'dream'
p1163
I1499
sS'help'
p1164
I64
sS'soon'
p1165
I611
sS'trade'
p1166
I653
sS'radar'
p1167
I1352
sS'attitude'
p1168
I1363
sS'paper'
p1169
I867
sS'scott'
p1170
I938
sS'committee'
p1171
I1105
sS'hell'
p1172
I457
sS'suffer'
p1173
I952
sS'islam'
p1174
I1153
sS'style'
p1175
I1531
sS'pray'
p1176
I1613
sS'actually'
p1177
I153
sS'late'
p1178
I936
sS'systems'
p1179
I769
sS'stephen'
p1180
I1385
sS'might'
p1181
I80
sS'fool'
p1182
I1570
sS'good'
p1183
I20
sS'return'
p1184
I308
sS'food'
p1185
I551
sS'propose'
p1186
I950
sS'scsus'
p1187
I1626
sS'inch'
p1188
I1915
sS'compound'
p1189
I1333
sS'foot'
p1190
I942
sS'complain'
p1191
I1640
sS'association'
p1192
I1575
sS'easily'
p1193
I825
sS'always'
p1194
I199
sS'capability'
p1195
I1253
sS'marry'
p1196
I1943
sS'heavy'
p1197
I1366
sS'week'
p1198
I236
sS'harm'
p1199
I1914
sS'everyone'
p1200
I357
sS'weight'
p1201
I1188
sS'generation'
p1202
I1579
sS'house'
p1203
I344
sS'energy'
p1204
I1342
sS'hard'
p1205
I177
sS'reduce'
p1206
I815
sS'idea'
p1207
I145
sS'brother'
p1208
I1234
sS'finish'
p1209
I1265
sS'expect'
p1210
I317
sS'operation'
p1211
I808
sS'beyond'
p1212
I1037
sS'event'
p1213
I421
sS'really'
p1214
I56
sS'ftp'
p1215
I408
sS'robert'
p1216
I585
sS'since'
p1217
I57
sS'publish'
p1218
I721
sS'research'
p1219
I235
sS'safety'
p1220
I775
sS'print'
p1221
I799
sS'issue'
p1222
I155
sS'belief'
p1223
I453
sS'upon'
p1224
I602
sS'story'
p1225
I533
sS'reason'
p1226
I114
sS'base'
p1227
I162
sS'imagine'
p1228
I865
sS'put'
p1229
I97
sS'teach'
p1230
I912
sS'beginning'
p1231
I1796
sS'generate'
p1232
I955
sS'definition'
p1233
I853
sS'thread'
p1234
I1045
sS'launch'
p1235
I513
sS'prophet'
p1236
I1935
sS'american'
p1237
I282
sS'circuit'
p1238
I922
sS'feed'
p1239
I1491
sS'major'
p1240
I428
sS'feel'
p1241
I210
sS'relate'
p1242
I1423
sS'number'
p1243
I54
sS'miss'
p1244
I570
sS'guess'
p1245
I349
sS'jew'
p1246
I1443
sS'jet'
p1247
I1272
sS'bay'
p1248
I1651
sS'least'
p1249
I132
sS'paint'
p1250
I1955
sS'regulation'
p1251
I1866
sS'station'
p1252
I715
sS'statement'
p1253
I379
sS'compromise'
p1254
I1521
sS'scheme'
p1255
I1327
sS'southern'
p1256
I1962
sS'store'
p1257
I861
sS'option'
p1258
I552
sS'relationship'
p1259
I1549
sS'park'
p1260
I1351
sS'prediction'
p1261
I1804
sS'part'
p1262
I76
sS'translation'
p1263
I1379
sS'believe'
p1264
I49
sS'fred'
p1265
I1586
sS'king'
p1266
I904
sS'kind'
p1267
I206
sS'hundred'
p1268
I1041
sS'double'
p1269
I1235
sS'instruction'
p1270
I1256
sS'greg'
p1271
I1508
sS'marriage'
p1272
I1558
sS'toward'
p1273
I1450
sS'bhj'
p1274
I1994
sS'contrary'
p1275
I1948
sS'null'
p1276
I1635
sS'sell'
p1277
I222
sS'mountain'
p1278
I1335
sS'check'
p1279
I238
sS'self'
p1280
I1513
sS'majority'
p1281
I1023
sS'internal'
p1282
I855
sS'build'
p1283
I209
sS'play'
p1284
I113
sS'towards'
p1285
I1332
sS'quote'
p1286
I424
sS'reach'
p1287
I813
sS'plan'
p1288
I389
sS'significant'
p1289
I1246
sS'nothing'
p1290
I169
sS'extremely'
p1291
I1725
sS'constitution'
p1292
I1022
sS'windows'
p1293
I196
sS'clear'
p1294
I440
sS'sometimes'
p1295
I591
sS'cover'
p1296
I387
sS'km'
p1297
I1984
sS'clean'
p1298
I1496
sS'usual'
p1299
I1592
sS'physics'
p1300
I1667
sS'microsoft'
p1301
I1471
sS'sector'
p1302
I1741
sS'thomas'
p1303
I957
sS'particularly'
p1304
I1073
sS'session'
p1305
I1514
sS'relation'
p1306
I1740
sS'font'
p1307
I689
sS'fine'
p1308
I495
sS'find'
p1309
I33
sS'impact'
p1310
I1643
sS'cell'
p1311
I1782
sS'copyright'
p1312
I1888
sS'justice'
p1313
I1192
sS'writer'
p1314
I1946
sS'penalty'
p1315
I1069
sS'pretty'
p1316
I294
sS'factor'
p1317
I1146
sS'hit'
p1318
I345
sS'express'
p1319
I854
sS'cheaper'
p1320
I1519
sS'international'
p1321
I729
sS'remove'
p1322
I712
sS'common'
p1323
I496
sS'activity'
p1324
I747
sS'rear'
p1325
I1829
sS'set'
p1326
I98
sS'art'
p1327
I1210
sS'intelligence'
p1328
I1523
sS'sex'
p1329
I1079
sS'culture'
p1330
I1576
sS'see'
p1331
I13
sS'defense'
p1332
I722
sS'sea'
p1333
I1713
sS'close'
p1334
I363
sS'arm'
p1335
I510
sS'expert'
p1336
I1222
sS'movie'
p1337
I1800
sS'currently'
p1338
I665
sS'please'
p1339
I55
sS'various'
p1340
I664
sS'probably'
p1341
I118
sS'europe'
p1342
I1205
sS'recently'
p1343
I608
sS'attention'
p1344
I1408
sS'interface'
p1345
I622
sS'league'
p1346
I516
sS'last'
p1347
I74
sS'license'
p1348
I1159
sS'hint'
p1349
I1737
sS'foreign'
p1350
I1478
sS'connection'
p1351
I1008
sS'context'
p1352
I932
sS'whole'
p1353
I302
sS'load'
p1354
I778
sS'jeff'
p1355
I1298
sS'simple'
p1356
I486
sS'sky'
p1357
I1908
sS'community'
p1358
I794
sS'simply'
p1359
I358
sS'village'
p1360
I954
sS'expensive'
p1361
I1081
sS'ps'
p1362
I1973
sS'pp'
p1363
I1445
sS'raise'
p1364
I846
sS'pt'
p1365
I852
sS'create'
p1366
I233
sS'political'
p1367
I681
sS'due'
p1368
I566
sS'pc'
p1369
I354
sS'secret'
p1370
I727
sS'damn'
p1371
I1564
sS'pd'
p1372
I1974
sS'territory'
p1373
I1591
sS'meeting'
p1374
I1393
sS'pl'
p1375
I1990
sS'pm'
p1376
I1473
sS'modern'
p1377
I1043
sS'flight'
p1378
I1106
sS'gay'
p1379
I1321
sS'fire'
p1380
I366
sS'crack'
p1381
I1889
sS'gas'
p1382
I752
sS'remark'
p1383
I1292
sS'else'
p1384
I178
sS'fund'
p1385
I842
sS'understand'
p1386
I247
sS'representative'
p1387
I1902
sS'demand'
p1388
I1113
sS'georgia'
p1389
I1410
sS'look'
p1390
I27
sS'solid'
p1391
I1459
sS'straight'
p1392
I1111
sS'bill'
p1393
I257
sS'budget'
p1394
I1387
sS'receive'
p1395
I381
sS'behavior'
p1396
I1302
sS'error'
p1397
I356
sS'fun'
p1398
I1390
sS'guide'
p1399
I1239
sS'century'
p1400
I1161
sS'ready'
p1401
I1367
sS'funny'
p1402
I1843
sS'anymore'
p1403
I1794
sS'grant'
p1404
I826
sS'belong'
p1405
I1544
sS'relatively'
p1406
I1788
sS'conflict'
p1407
I1213
sS'higher'
p1408
I734
sS'development'
p1409
I733
sS'lie'
p1410
I627
sS'yesterday'
p1411
I1441
sS'moment'
p1412
I1171
sS'purpose'
p1413
I436
sS'recent'
p1414
I905
sS'lower'
p1415
I897
sS'task'
p1416
I1760
sS'database'
p1417
I1462
sS'anybody'
p1418
I385
sS'analysis'
p1419
I1000
sS'obviously'
p1420
I836
sS'person'
p1421
I164
sS'edge'
p1422
I1176
sS'organization'
p1423
I528
sS'spend'
p1424
I564
sS'know'
p1425
I7
sS'shape'
p1426
I1676
sS'amp'
p1427
I1678
sS'useful'
p1428
I828
sS'alternative'
p1429
I1156
sS'simm'
p1430
I1021
sS'cut'
p1431
I527
sS'also'
p1432
I15
sS'danger'
p1433
I1825
sS'source'
p1434
I161
sS'location'
p1435
I1444
sS'input'
p1436
I711
sS'bio'
p1437
I1703
sS'australia'
p1438
I1518
sS'march'
p1439
I959
sS'format'
p1440
I420
sS'big'
p1441
I231
sS'couple'
p1442
I384
sS'xterm'
p1443
I1310
sS'game'
p1444
I72
sS'bit'
p1445
I128
sS'wings'
p1446
I1922
sS'helpful'
p1447
I1969
sS'signal'
p1448
I929
sS'ignore'
p1449
I1009
sS'collect'
p1450
I1724
sS'continue'
p1451
I445
sS'popular'
p1452
I1267
sS'often'
p1453
I352
sS'absolutely'
p1454
I1201
sS'spring'
p1455
I1719
sS'creation'
p1456
I1389
sS'back'
p1457
I59
sS'economic'
p1458
I1381
sS'mirror'
p1459
I1862
sS'curious'
p1460
I1660
sS'scale'
p1461
I1527
sS'decision'
p1462
I795
sS'shall'
p1463
I706
sS'per'
p1464
I479
sS'religion'
p1465
I326
sS'pen'
p1466
I1934
sS'eliminate'
p1467
I1939
sS'patient'
p1468
I937
sS'bb'
p1469
I1619
sS'word'
p1470
I130
sS'processing'
p1471
I1495
sS'bh'
p1472
I1967
sS'step'
p1473
I890
sS'faith'
p1474
I412
sS'anything'
p1475
I115
sS'range'
p1476
I812
sS'militia'
p1477
I1059
sS'mouth'
p1478
I1954
sS'ide'
p1479
I856
sS'block'
p1480
I683
sS'clinton'
p1481
I542
sS'colorado'
p1482
I1639
sS'nsa'
p1483
I967
sS'within'
p1484
I437
sS'services'
p1485
I1627
sS'appropriate'
p1486
I893
sS'statistics'
p1487
I1759
sS'apparently'
p1488
I886
sS'question'
p1489
I45
sS'fast'
p1490
I488
sS'camera'
p1491
I1875
sS'forward'
p1492
I1125
sS'manufacture'
p1493
I1953
sS'jewish'
p1494
I512
sS'poster'
p1495
I1178
sS'calgary'
p1496
I1839
sS'properly'
p1497
I1338
sS'link'
p1498
I1029
sS'authority'
p1499
I597
sS'russian'
p1500
I805
sS'line'
p1501
I96
sS'info'
p1502
I278
sS'us'
p1503
I276
sS'planet'
p1504
I1623
sS'uk'
p1505
I1309
sS'similar'
p1506
I411
sS'professor'
p1507
I1712
sS'bell'
p1508
I1694
sS'char'
p1509
I1388
sS'engineering'
p1510
I879
sS'warning'
p1511
I1618
sS'buffer'
p1512
I1754
sS'peace'
p1513
I668
sS'armenians'
p1514
I438
sS'application'
p1515
I240
sS'electrical'
p1516
I1596
sS'department'
p1517
I562
sS'nice'
p1518
I449
sS'draw'
p1519
I589
sS'william'
p1520
I1593
sS'meaning'
p1521
I1030
sS'structure'
p1522
I1200
sS'ago'
p1523
I275
sS'land'
p1524
I539
sS'algorithm'
p1525
I613
sS'age'
p1526
I793
sS'orbit'
p1527
I860
sS'nasa'
p1528
I599
sS'hello'
p1529
I1158
sS'code'
p1530
I220
sS'jason'
p1531
I1456
sS'resistance'
p1532
I1637
sS'steve'
p1533
I369
sS'gang'
p1534
I1930
sS'go'
p1535
I10
sS'gm'
p1536
I933
sS'turkish'
p1537
I347
sS'young'
p1538
I616
sS'send'
p1539
I89
sS'include'
p1540
I60
sS'probe'
p1541
I1437
sS'wave'
p1542
I1426
sS'entire'
p1543
I872
sS'transmission'
p1544
I1848
sS'button'
p1545
I1372
sS'michael'
p1546
I469
sS'ryan'
p1547
I1638
sS'try'
p1548
I36
sS'race'
p1549
I1074
sS'challenge'
p1550
I1745
sS'disclaimer'
p1551
I787
sS'smaller'
p1552
I1751
sS'jump'
p1553
I1546
sS'imply'
p1554
I1058
sS'video'
p1555
I447
sS'folk'
p1556
I837
sS'index'
p1557
I1833
sS'power'
p1558
I95
sS'chicago'
p1559
I829
sS'access'
p1560
I298
sS'experiment'
p1561
I1468
sS'capital'
p1562
I1947
sS'exercise'
p1563
I1826
sS'body'
p1564
I368
sS'lee'
p1565
I1509
sS'degree'
p1566
I1123
sS'exchange'
p1567
I1877
sS'commercial'
p1568
I823
sS'let'
p1569
I77
sS'consideration'
p1570
I1763
sS'great'
p1571
I147
sS'technical'
p1572
I770
sS'larger'
p1573
I1383
sS'opinion'
p1574
I139
sS'implement'
p1575
I1229
sS'apple'
p1576
I519
sS'heart'
p1577
I975
sS'apr'
p1578
I773
sS'win'
p1579
I170
sS'app'
p1580
I1543
sS'manage'
p1581
I1097
sS'private'
p1582
I459
sS'motor'
p1583
I1716
sS'apply'
p1584
I473
sS'gateway'
p1585
I1691
sS'use'
p1586
I3
sS'fee'
p1587
I1690
sS'stream'
p1588
I1278
sS'usa'
p1589
I619
sS'illegal'
p1590
I1096
sS'next'
p1591
I182
sS'doubt'
p1592
I636
sS'vehicle'
p1593
I892
sS'stage'
p1594
I1515
sS'start'
p1595
I68
sS'sort'
p1596
I350
sS'biblical'
p1597
I1722
sS'train'
p1598
I1870
sS'baby'
p1599
I1810
sS'central'
p1600
I1840
sS'iii'
p1601
I1932
sS'customer'
p1602
I1926
sS'topic'
p1603
I1099
sS'account'
p1604
I710
sS'ride'
p1605
I544
sS'package'
p1606
I315
sS'anywhere'
p1607
I1442
sS'obvious'
p1608
I868
sS'freedom'
p1609
I724
sS'meet'
p1610
I680
sS'proof'
p1611
I1168
sS'control'
p1612
I172
sS'process'
p1613
I472
sS'lock'
p1614
I1131
sS'tax'
p1615
I503
sS'high'
p1616
I198
sS'something'
p1617
I53
sS'serial'
p1618
I791
sS'rape'
p1619
I1958
sS'compatible'
p1620
I1431
sS'united'
p1621
I629
sS'sit'
p1622
I838
sS'six'
p1623
I1144
sS'brian'
p1624
I763
sS'animal'
p1625
I1040
sS'instead'
p1626
I380
sS'sin'
p1627
I686
sS'stand'
p1628
I481
sS'honda'
p1629
I1773
sS'watch'
p1630
I476
sS'collection'
p1631
I1671
sS'abuse'
p1632
I1279
sS'light'
p1633
I367
sS'element'
p1634
I1463
sS'allow'
p1635
I179
sS'houston'
p1636
I1931
sS'move'
p1637
I241
sS'motorcycle'
p1638
I1230
sS'bunch'
p1639
I1212
sS'perfect'
p1640
I1011
sS'la'
p1641
I667
sS'newsgroup'
p1642
I482
sS'choose'
p1643
I524
sS'criminal'
p1644
I594
sS'pixel'
p1645
I1717
sS'eus'
p1646
I1988
sS'crash'
p1647
I1497
sS'greater'
p1648
I1306
sS'auto'
p1649
I1608
sS'dan'
p1650
I1068
sS'practice'
p1651
I726
sS'mention'
p1652
I273
sS'front'
p1653
I595
sS'day'
p1654
I61
sS'february'
p1655
I1941
sS'university'
p1656
I104
sS'mode'
p1657
I404
sS'truth'
p1658
I341
sS'strip'
p1659
I1731
sS'related'
p1660
I1143
sS'society'
p1661
I534
sS'frequency'
p1662
I1786
sS'measure'
p1663
I875
sS'programmer'
p1664
I1865
sS'patch'
p1665
I1472
sS'sexual'
p1666
I1307
sS'special'
p1667
I605
sS'category'
p1668
I1925
sS'defend'
p1669
I1286
sS'electronics'
p1670
I1672
sS'cause'
p1671
I173
sS'red'
p1672
I587
sS'shut'
p1673
I1907
sS'frank'
p1674
I864
sS'ban'
p1675
I1341
sS'completely'
p1676
I742
sS'surely'
p1677
I1605
sS'york'
p1678
I612
sS'automatic'
p1679
I1551
sS'david'
p1680
I175
sS'conversation'
p1681
I1403
sS'length'
p1682
I1572
sS'hence'
p1683
I1844
sS'south'
p1684
I920
sS'confuse'
p1685
I1687
sS'jesus'
p1686
I151
sS'koresh'
p1687
I1042
sS'submit'
p1688
I1742
sS'pgp'
p1689
I1273
sS'owner'
p1690
I761
sS'quality'
p1691
I705
sS'management'
p1692
I1315
sS'reference'
p1693
I365
sS'privacy'
p1694
I675
sS'system'
p1695
I29
sS'attach'
p1696
I1903
sS'attack'
p1697
I316
sS'perfectly'
p1698
I1776
sS'final'
p1699
I666
sS'enforcement'
p1700
I871
sS'shell'
p1701
I1163
sS'gear'
p1702
I1891
sS'explanation'
p1703
I1578
sS'exactly'
p1704
I454
sS'rsa'
p1705
I1675
sS'bother'
p1706
I1112
sS'individual'
p1707
I430
sS'bet'
p1708
I1552
sS'imho'
p1709
I1711
sS'false'
p1710
I1038
sS'unlikely'
p1711
I1910
sS'need'
p1712
I31
sS'border'
p1713
I1238
sS'clearly'
p1714
I694
sS'screw'
p1715
I1276
sS'afraid'
p1716
I1562
sS'min'
p1717
I1845
sS'agency'
p1718
I631
sS'able'
p1719
I191
sS'mechanism'
p1720
I1501
sS'instance'
p1721
I1199
sS'detector'
p1722
I1595
sS'brand'
p1723
I1417
sS'unless'
p1724
I401
sS'sl'
p1725
I1992
sS'cipher'
p1726
I1886
sS'device'
p1727
I342
sS'class'
p1728
I649
sS'deny'
p1729
I983
sS'request'
p1730
I491
sS'disease'
p1731
I759
sS'face'
p1732
I429
sS'normally'
p1733
I1483
sS'fact'
p1734
I91
sS'violation'
p1735
I1779
sS'text'
p1736
I531
sS'charles'
p1737
I1583
sS'anyway'
p1738
I372
sS'bring'
p1739
I321
sS'fear'
p1740
I1031
sS'debate'
p1741
I1522
sS'staff'
p1742
I1909
sS'knowledge'
p1743
I658
sS'tire'
p1744
I1243
sS'cache'
p1745
I1355
sS'eat'
p1746
I863
sS'terminal'
p1747
I1606
sS'tape'
p1748
I596
sS'fuel'
p1749
I1492
sS'local'
p1750
I283
sS'hope'
p1751
I223
sS'handle'
p1752
I670
sS'means'
p1753
I1005
sS'beat'
p1754
I810
sS'convert'
p1755
I737
sS'massacre'
p1756
I1406
sS'overall'
p1757
I1835
sS'bear'
p1758
I550
sS'legitimate'
p1759
I1537
sS'handgun'
p1760
I1087
sS'brain'
p1761
I1122
sS'stuff'
p1762
I320
sS'contain'
p1763
I390
sS'view'
p1764
I268
sS'available'
p1765
I99
sS'requirement'
p1766
I1241
sS'frame'
p1767
I1359
sS'module'
p1768
I1898
sS'edition'
p1769
I1704
sS'computer'
p1770
I125
sS'greece'
p1771
I1892
sS'closer'
p1772
I1887
sS'wire'
p1773
I745
sS'stats'
p1774
I1669
sS'turks'
p1775
I832
sS'nuclear'
p1776
I1136
sS'tend'
p1777
I891
sS'favor'
p1778
I1621
sS'state'
p1779
I63
sS'correctly'
p1780
I1569
sS'routine'
p1781
I1242
sS'neither'
p1782
I918
sS'email'
p1783
I176
sS'ken'
p1784
I1325
sS'ability'
p1785
I894
sS'ignorance'
p1786
I1859
sS'job'
p1787
I325
sS'joe'
p1788
I1135
sS'key'
p1789
I69
sS'police'
p1790
I456
sS'configuration'
p1791
I1695
sS'problem'
p1792
I32
sS'jon'
p1793
I1100
sS'thank'
p1794
I739
sS'career'
p1795
I1734
sS'joke'
p1796
I1656
sS'equal'
p1797
I1404
sS'drug'
p1798
I427
sS'etc'
p1799
I817
sS'admit'
p1800
I945
sS'otherwise'
p1801
I674
sS'comment'
p1802
I340
sS'relevant'
p1803
I1674
sS'author'
p1804
I575
sS'conclude'
p1805
I1784
sS'wall'
p1806
I1252
sS'ca'
p1807
I537
sS'walk'
p1808
I958
sS'laugh'
p1809
I1548
sS'cs'
p1810
I1976
sS'respect'
p1811
I976
sS'addition'
p1812
I847
sS'decent'
p1813
I1661
sS'amiga'
p1814
I1966
sS'willing'
p1815
I736
sS'treat'
p1816
I930
sS'ah'
p1817
I1983
sS'proposal'
p1818
I1039
sS'waste'
p1819
I1093
sS'bbs'
p1820
I1532
sS'define'
p1821
I615
sS'mike'
p1822
I458
sS'homosexual'
p1823
I1126
sS'sufficient'
p1824
I1648
sS'essentially'
p1825
I1696
sS'controller'
p1826
I614
sS'graphics'
p1827
I1255
sS'atlanta'
p1828
I1923
sS'present'
p1829
I396
sS'lebanese'
p1830
I1588
sS'plain'
p1831
I1787
sS'value'
p1832
I261
sS'fault'
p1833
I1376
sS'supply'
p1834
I781
sS'annual'
p1835
I1885
sS'motif'
p1836
I725
sS'almost'
p1837
I375
sS'thus'
p1838
I494
sS'site'
p1839
I417
sS'surface'
p1840
I1085
sS'hardware'
p1841
I477
sS'vs'
p1842
I921
sS'terrorist'
p1843
I1475
sS'perhaps'
p1844
I280
sS'administration'
p1845
I654
sS'cross'
p1846
I1133
sS'member'
p1847
I337
sS'matthew'
p1848
I1077
sS'strange'
p1849
I1920
sS'speaker'
p1850
I1700
sS'shuttle'
p1851
I1237
sS'party'
p1852
I635
sS'difficult'
p1853
I851
sS'ball'
p1854
I1138
sS'slave'
p1855
I1505
sS'drink'
p1856
I1432
sS'disagree'
p1857
I1281
sS'effect'
p1858
I361
sS'student'
p1859
I800
sS'frequently'
p1860
I1633
sS'expand'
p1861
I1928
sS'center'
p1862
I244
sS'weapon'
p1863
I377
sS'variety'
p1864
I1790
sS'well'
p1865
I26
sS'thought'
p1866
I939
sS'command'
p1867
I548
sS'english'
p1868
I1433
sS'position'
p1869
I402
sS'audio'
p1870
I1452
sS'soviet'
p1871
I1231
sS'latest'
p1872
I1130
sS'rocket'
p1873
I1066
sS'less'
p1874
I207
sS'percent'
p1875
I1485
sS'accurate'
p1876
I1628
sS'obtain'
p1877
I798
sS'voltage'
p1878
I1851
sS'paul'
p1879
I441
sS'brad'
p1880
I1629
sS'clipper'
p1881
I521
sS'point'
p1882
I44
sS'smith'
p1883
I792
sS'realize'
p1884
I698
sS'battery'
p1885
I1270
sS'add'
p1886
I264
sS'citizen'
p1887
I630
sS'warrant'
p1888
I1430
sS'match'
p1889
I1457
sS'gmt'
p1890
I1535
sS'branch'
p1891
I1838
sS'government'
p1892
I66
sS'execute'
p1893
I1841
sS'five'
p1894
I953
sS'whatever'
p1895
I557
sS'press'
p1896
I418
sS'immediately'
p1897
I1405
sS'loss'
p1898
I1108
sS'motorola'
p1899
I1768
sS'necessary'
p1900
I652
sS'like'
p1901
I11
sS'success'
p1902
I1561
sS'mhz'
p1903
I1266
sS'lose'
p1904
I323
sS'become'
p1905
I204
sS'page'
p1906
I543
sS'regardless'
p1907
I1757
sS'amendment'
p1908
I916
sS'sequence'
p1909
I1439
sS'church'
p1910
I328
sS'library'
p1911
I640
sS'francisco'
p1912
I1697
sS'export'
p1913
I1314
sS'proper'
p1914
I1181
sS'home'
p1915
I226
sS'peter'
p1916
I786
sS'lead'
p1917
I285
sS'avoid'
p1918
I645
sS'leader'
p1919
I971
sS'noise'
p1920
I1664
sS'schedule'
p1921
I1528
sS'journal'
p1922
I1587
sS'expansion'
p1923
I1642
sS'pressure'
p1924
I1172
sS'host'
p1925
I1102
sS'although'
p1926
I373
sS'panel'
p1927
I1384
sS'actual'
p1928
I1209
sS'extension'
p1929
I1748
sS'universe'
p1930
I992
sS'shipping'
p1931
I1217
sS'angeles'
p1932
I1268
sS'software'
p1933
I149
sS'previously'
p1934
I1957
sS'washington'
p1935
I662
sS'playoff'
p1936
I1061
sS'promise'
p1937
I1343
sS'utility'
p1938
I1233
sS'van'
p1939
I1025
sS'additional'
p1940
I1247
sS'waco'
p1941
I1780
sS'transfer'
p1942
I809
sS'biggest'
p1943
I1968
sS'function'
p1944
I416
sS'buy'
p1945
I137
sS'north'
p1946
I925
sS'hr'
p1947
I1980
sS'bus'
p1948
I526
sS'hp'
p1949
I1014
sS'escrow'
p1950
I935
sS'volume'
p1951
I994
sS'neutral'
p1952
I1466
sS'gain'
p1953
I1134
sS'highest'
p1954
I1970
sS'buf'
p1955
I1409
sS'bug'
p1956
I1285
sS'hd'
p1957
I1347
sS'count'
p1958
I751
sS'converter'
p1959
I1764
sS'hitter'
p1960
I1971
sS'whether'
p1961
I242
sS'dangerous'
p1962
I1140
sS'official'
p1963
I642
sS'record'
p1964
I490
sS'convince'
p1965
I1296
sS'limit'
p1966
I571
sS'demonstrate'
p1967
I1498
sS'distribution'
p1968
I1091
sS'piece'
p1969
I1044
sS'display'
p1970
I266
sS'pin'
p1971
I963
sS'int'
p1972
I1191
sS'recognize'
p1973
I934
sS'contribute'
p1974
I1797
sS'et'
p1975
I1641
sS'education'
p1976
I1013
sS'pit'
p1977
I1803
sS'eric'
p1978
I1020
sS'contest'
p1979
I1553
sS'corporation'
p1980
I1336
sS'boot'
p1981
I1329
sS'detail'
p1982
I538
sS'virtual'
p1983
I1808
sS'book'
p1984
I146
sS'witness'
p1985
I1189
sS'sick'
p1986
I1446
sS'conclusion'
p1987
I870
sS'repeat'
p1988
I1173
sS'star'
p1989
I1115
sS'june'
p1990
I1598
sS'stay'
p1991
I708
sS'chance'
p1992
I549
sS'atheist'
p1993
I572
sS'rule'
p1994
I284
sS'original'
p1995
I355
sS'atheism'
p1996
I1264
s.